; Function Attrs: nofree norecurse nosync nounwind memory(read, inaccessiblemem: none) uwtable
define range(i32 0, 2) i32 @Abc_NtkAddBuffsEval2(ptr noundef readonly %0, ptr noundef readonly captures(none) %1) local_unnamed_addr #2 {
  %3 = getelementptr i8, ptr %1, i64 44
  %.val = load i32, ptr %3, align 4
  %4 = icmp sgt i32 %.val, 0
  br i1 %4, label %.lr.ph, label %.critedge

.lr.ph:                                           ; preds = %2
  %.val12 = load ptr, ptr %1, align 8
  %5 = getelementptr i8, ptr %1, i64 48
  %.val13 = load ptr, ptr %5, align 8
  %6 = getelementptr i8, ptr %.val12, i64 32
  %.val12.val = load ptr, ptr %6, align 8
  %7 = getelementptr i8, ptr %.val12.val, i64 8
  %.val12.val.val = load ptr, ptr %7, align 8
  %8 = getelementptr inbounds nuw i8, ptr %0, i64 20
  %wide.trip.count = zext nneg i32 %.val to i64
  br label %9

9:                                                ; preds = %.lr.ph, %22
  %indvars.iv = phi i64 [ 0, %.lr.ph ], [ %indvars.iv.next, %22 ]
  %10 = getelementptr inbounds nuw i32, ptr %.val13, i64 %indvars.iv
  %11 = load i32, ptr %10, align 4
  %12 = sext i32 %11 to i64
  %13 = getelementptr inbounds ptr, ptr %.val12.val.val, i64 %12
  %14 = load ptr, ptr %13, align 8
  %.not = icmp eq ptr %14, %0
  br i1 %.not, label %22, label %15

15:                                               ; preds = %9
  %16 = getelementptr inbounds nuw i8, ptr %14, i64 20
  %17 = load i32, ptr %16, align 4
  %18 = lshr i32 %17, 12
  %19 = load i32, ptr %8, align 4
  %20 = lshr i32 %19, 12
  %21 = icmp samesign ugt i32 %18, %20
  br i1 %21, label %.critedge, label %22

22:                                               ; preds = %9, %15
  %indvars.iv.next = add nuw nsw i64 %indvars.iv, 1
  %exitcond.not = icmp eq i64 %indvars.iv.next, %wide.trip.count
  br i1 %exitcond.not, label %.critedge, label %9, !llvm.loop !100

.critedge:                                        ; preds = %15, %22, %2
  %.09 = phi i32 [ 0, %2 ], [ 0, %22 ], [ 1, %15 ]
  ret i32 %.09
}